; Function Attrs: mustprogress nofree norecurse nosync nounwind memory(readwrite, inaccessiblemem: none) uwtable
define hidden void @_ZN19SamplePriorityQueue6moveUpEi(ptr nocapture noundef nonnull readonly align 8 dereferenceable(32) %0, i32 noundef %1) local_unnamed_addr #3 align 2 {
  %3 = icmp sgt i32 %1, 0
  br i1 %3, label %.lr.ph, label %.critedge

.lr.ph:                                           ; preds = %2, %16
  %.0811 = phi i32 [ %.012, %16 ], [ %1, %2 ]
  %.012.in = add nsw i32 %.0811, -1
  %.012 = sdiv i32 %.012.in, 2
  %4 = load ptr, ptr %0, align 8
  %5 = zext nneg i32 %.0811 to i64
  %6 = getelementptr inbounds ptr, ptr %4, i64 %5
  %7 = load ptr, ptr %6, align 8
  %8 = getelementptr inbounds i8, ptr %7, i64 88
  %9 = load i64, ptr %8, align 8
  %10 = sext i32 %.012 to i64
  %11 = getelementptr inbounds ptr, ptr %4, i64 %10
  %12 = load ptr, ptr %11, align 8
  %13 = getelementptr inbounds i8, ptr %12, i64 88
  %14 = load i64, ptr %13, align 8
  %15 = icmp ult i64 %9, %14
  br i1 %15, label %16, label %.critedge

16:                                               ; preds = %.lr.ph
  store ptr %12, ptr %6, align 8
  %17 = load ptr, ptr %0, align 8
  %18 = getelementptr inbounds ptr, ptr %17, i64 %10
  store ptr %7, ptr %18, align 8
  %19 = load ptr, ptr %0, align 8
  %20 = getelementptr inbounds ptr, ptr %19, i64 %5
  %21 = load ptr, ptr %20, align 8
  %22 = getelementptr inbounds i8, ptr %21, i64 112
  store i32 %.0811, ptr %22, align 8
  %23 = load ptr, ptr %0, align 8
  %24 = getelementptr inbounds ptr, ptr %23, i64 %10
  %25 = load ptr, ptr %24, align 8
  %26 = getelementptr inbounds i8, ptr %25, i64 112
  store i32 %.012, ptr %26, align 8
  %27 = icmp sgt i32 %.0811, 2
  br i1 %27, label %.lr.ph, label %.critedge, !llvm.loop !6

.critedge:                                        ; preds = %.lr.ph, %16, %2
  ret void
}